target datalayout = "e-m:e-p270:32:32-p271:32:32-p272:64:64-i64:64-i128:128-f80:128-n8:16:32:64-S128"
target triple = "x86_64-unknown-linux-gnu"

%"struct.facebook::velox::ByteRange" = type { ptr, i32, i32 }
%"class.__gnu_cxx::__normal_iterator" = type { ptr }
%"class.std::vector" = type { %"struct.std::_Vector_base" }
%"struct.std::_Vector_base" = type { %"struct.std::_Vector_base<facebook::velox::ByteRange, std::allocator<facebook::velox::ByteRange>>::_Vector_impl" }
%"struct.std::_Vector_base<facebook::velox::ByteRange, std::allocator<facebook::velox::ByteRange>>::_Vector_impl" = type { %"struct.std::_Vector_base<facebook::velox::ByteRange, std::allocator<facebook::velox::ByteRange>>::_Vector_impl_data" }
%"struct.std::_Vector_base<facebook::velox::ByteRange, std::allocator<facebook::velox::ByteRange>>::_Vector_impl_data" = type { ptr, ptr, ptr }
%"class.std::fpos" = type { i64, %struct.__mbstate_t }
%struct.__mbstate_t = type { i32, %union.anon.3 }
%union.anon.3 = type { i32 }
%"class.__gnu_cxx::__normal_iterator.4" = type { ptr }
%"class.facebook::velox::ByteOutputStream" = type <{ ptr, i8, i8, i8, [5 x i8], %"class.std::vector", i64, ptr, i32, [4 x i8] }>

; Function Attrs: mustprogress nounwind uwtable
define linkonce_odr noundef nonnull align 8 dereferenceable(8) ptr @_ZNK9__gnu_cxx17__normal_iteratorIPKN8facebook5velox9ByteRangeESt6vectorIS3_SaIS3_EEE4baseEv(ptr noundef nonnull align 8 dereferenceable(8) %this) #3 comdat align 2 {
entry:
  %this.addr = alloca ptr, align 8
  store ptr %this, ptr %this.addr, align 8
  %this1 = load ptr, ptr %this.addr, align 8
  %_M_current = getelementptr inbounds %"class.__gnu_cxx::__normal_iterator", ptr %this1, i32 0, i32 0
  ret ptr %_M_current
}

; Function Attrs: mustprogress nounwind uwtable
define linkonce_odr void @_ZN9__gnu_cxx17__normal_iteratorIPKN8facebook5velox9ByteRangeESt6vectorIS3_SaIS3_EEEC2ERKS5_(ptr noundef nonnull align 8 dereferenceable(8) %this, ptr noundef nonnull align 8 dereferenceable(8) %__i) unnamed_addr #3 comdat align 2 {
entry:
  %this.addr = alloca ptr, align 8
  %__i.addr = alloca ptr, align 8
  store ptr %this, ptr %this.addr, align 8
  store ptr %__i, ptr %__i.addr, align 8
  %this1 = load ptr, ptr %this.addr, align 8
  %_M_current = getelementptr inbounds %"class.__gnu_cxx::__normal_iterator", ptr %this1, i32 0, i32 0
  %0 = load ptr, ptr %__i.addr, align 8
  %1 = load ptr, ptr %0, align 8
  store ptr %1, ptr %_M_current, align 8
  ret void
}

; Function Attrs: mustprogress nounwind uwtable
define linkonce_odr noundef nonnull align 8 dereferenceable(16) ptr @_ZNK9__gnu_cxx17__normal_iteratorIPKN8facebook5velox9ByteRangeESt6vectorIS3_SaIS3_EEEdeEv(ptr noundef nonnull align 8 dereferenceable(8) %this) #3 comdat align 2 {
entry:
  %this.addr = alloca ptr, align 8
  store ptr %this, ptr %this.addr, align 8
  %this1 = load ptr, ptr %this.addr, align 8
  %_M_current = getelementptr inbounds %"class.__gnu_cxx::__normal_iterator", ptr %this1, i32 0, i32 0
  %0 = load ptr, ptr %_M_current, align 8
  ret ptr %0
}

; Function Attrs: mustprogress nounwind uwtable
define linkonce_odr ptr @_ZNK9__gnu_cxx17__normal_iteratorIPKN8facebook5velox9ByteRangeESt6vectorIS3_SaIS3_EEEmiEl(ptr noundef nonnull align 8 dereferenceable(8) %this, i64 noundef %__n) #3 comdat align 2 {
entry:
  %retval = alloca %"class.__gnu_cxx::__normal_iterator", align 8
  %this.addr = alloca ptr, align 8
  %__n.addr = alloca i64, align 8
  %ref.tmp = alloca ptr, align 8
  store ptr %this, ptr %this.addr, align 8
  store i64 %__n, ptr %__n.addr, align 8
  %this1 = load ptr, ptr %this.addr, align 8
  %_M_current = getelementptr inbounds %"class.__gnu_cxx::__normal_iterator", ptr %this1, i32 0, i32 0
  %0 = load ptr, ptr %_M_current, align 8
  %1 = load i64, ptr %__n.addr, align 8
  %idx.neg = sub i64 0, %1
  %add.ptr = getelementptr inbounds %"struct.facebook::velox::ByteRange", ptr %0, i64 %idx.neg
  store ptr %add.ptr, ptr %ref.tmp, align 8
  call void @_ZN9__gnu_cxx17__normal_iteratorIPKN8facebook5velox9ByteRangeESt6vectorIS3_SaIS3_EEEC2ERKS5_(ptr noundef nonnull align 8 dereferenceable(8) %retval, ptr noundef nonnull align 8 dereferenceable(8) %ref.tmp) #14
  %coerce.dive = getelementptr inbounds %"class.__gnu_cxx::__normal_iterator", ptr %retval, i32 0, i32 0
  %2 = load ptr, ptr %coerce.dive, align 8
  ret ptr %2
}

; Function Attrs: mustprogress nounwind uwtable
define linkonce_odr noundef nonnull align 8 dereferenceable(8) ptr @_ZNK9__gnu_cxx17__normal_iteratorIPN8facebook5velox9ByteRangeESt6vectorIS3_SaIS3_EEE4baseEv(ptr noundef nonnull align 8 dereferenceable(8) %this) #3 comdat align 2 {
entry:
  %this.addr = alloca ptr, align 8
  store ptr %this, ptr %this.addr, align 8
  %this1 = load ptr, ptr %this.addr, align 8
  %_M_current = getelementptr inbounds %"class.__gnu_cxx::__normal_iterator.4", ptr %this1, i32 0, i32 0
  ret ptr %_M_current
}

; Function Attrs: mustprogress nounwind uwtable
define linkonce_odr void @_ZN9__gnu_cxx17__normal_iteratorIPN8facebook5velox9ByteRangeESt6vectorIS3_SaIS3_EEEC2ERKS4_(ptr noundef nonnull align 8 dereferenceable(8) %this, ptr noundef nonnull align 8 dereferenceable(8) %__i) unnamed_addr #3 comdat align 2 {
entry:
  %this.addr = alloca ptr, align 8
  %__i.addr = alloca ptr, align 8
  store ptr %this, ptr %this.addr, align 8
  store ptr %__i, ptr %__i.addr, align 8
  %this1 = load ptr, ptr %this.addr, align 8
  %_M_current = getelementptr inbounds %"class.__gnu_cxx::__normal_iterator.4", ptr %this1, i32 0, i32 0
  %0 = load ptr, ptr %__i.addr, align 8
  %1 = load ptr, ptr %0, align 8
  store ptr %1, ptr %_M_current, align 8
  ret void
}

; Function Attrs: mustprogress nounwind uwtable
define linkonce_odr noundef zeroext i1 @_ZN9__gnu_cxxeqIPKN8facebook5velox9ByteRangeESt6vectorIS3_SaIS3_EEEEbRKNS_17__normal_iteratorIT_T0_EESE_(ptr noundef nonnull align 8 dereferenceable(8) %__lhs, ptr noundef nonnull align 8 dereferenceable(8) %__rhs) #3 comdat {
entry:
  %__lhs.addr = alloca ptr, align 8
  %__rhs.addr = alloca ptr, align 8
  store ptr %__lhs, ptr %__lhs.addr, align 8
  store ptr %__rhs, ptr %__rhs.addr, align 8
  %0 = load ptr, ptr %__lhs.addr, align 8
  %call = call noundef nonnull align 8 dereferenceable(8) ptr @_ZNK9__gnu_cxx17__normal_iteratorIPKN8facebook5velox9ByteRangeESt6vectorIS3_SaIS3_EEE4baseEv(ptr noundef nonnull align 8 dereferenceable(8) %0) #14
  %1 = load ptr, ptr %call, align 8
  %2 = load ptr, ptr %__rhs.addr, align 8
  %call1 = call noundef nonnull align 8 dereferenceable(8) ptr @_ZNK9__gnu_cxx17__normal_iteratorIPKN8facebook5velox9ByteRangeESt6vectorIS3_SaIS3_EEE4baseEv(ptr noundef nonnull align 8 dereferenceable(8) %2) #14
  %3 = load ptr, ptr %call1, align 8
  %cmp = icmp eq ptr %1, %3
  ret i1 %cmp
}

; Function Attrs: mustprogress nounwind uwtable
define linkonce_odr ptr @_ZNKSt6vectorIN8facebook5velox9ByteRangeESaIS2_EE3endEv(ptr noundef nonnull align 8 dereferenceable(24) %this) #3 comdat align 2 {
entry:
  %retval = alloca %"class.__gnu_cxx::__normal_iterator", align 8
  %this.addr = alloca ptr, align 8
  store ptr %this, ptr %this.addr, align 8
  %this1 = load ptr, ptr %this.addr, align 8
  %_M_impl = getelementptr inbounds %"struct.std::_Vector_base", ptr %this1, i32 0, i32 0
  %_M_finish = getelementptr inbounds %"struct.std::_Vector_base<facebook::velox::ByteRange, std::allocator<facebook::velox::ByteRange>>::_Vector_impl_data", ptr %_M_impl, i32 0, i32 1
  call void @_ZN9__gnu_cxx17__normal_iteratorIPKN8facebook5velox9ByteRangeESt6vectorIS3_SaIS3_EEEC2ERKS5_(ptr noundef nonnull align 8 dereferenceable(8) %retval, ptr noundef nonnull align 8 dereferenceable(8) %_M_finish) #14
  %coerce.dive = getelementptr inbounds %"class.__gnu_cxx::__normal_iterator", ptr %retval, i32 0, i32 0
  %0 = load ptr, ptr %coerce.dive, align 8
  ret ptr %0
}

; Function Attrs: mustprogress nounwind uwtable
define linkonce_odr ptr @_ZNKSt6vectorIN8facebook5velox9ByteRangeESaIS2_EE5beginEv(ptr noundef nonnull align 8 dereferenceable(24) %this) #3 comdat align 2 {
entry:
  %retval = alloca %"class.__gnu_cxx::__normal_iterator", align 8
  %this.addr = alloca ptr, align 8
  store ptr %this, ptr %this.addr, align 8
  %this1 = load ptr, ptr %this.addr, align 8
  %_M_impl = getelementptr inbounds %"struct.std::_Vector_base", ptr %this1, i32 0, i32 0
  %_M_start = getelementptr inbounds %"struct.std::_Vector_base<facebook::velox::ByteRange, std::allocator<facebook::velox::ByteRange>>::_Vector_impl_data", ptr %_M_impl, i32 0, i32 0
  call void @_ZN9__gnu_cxx17__normal_iteratorIPKN8facebook5velox9ByteRangeESt6vectorIS3_SaIS3_EEEC2ERKS5_(ptr noundef nonnull align 8 dereferenceable(8) %retval, ptr noundef nonnull align 8 dereferenceable(8) %_M_start) #14
  %coerce.dive = getelementptr inbounds %"class.__gnu_cxx::__normal_iterator", ptr %retval, i32 0, i32 0
  %0 = load ptr, ptr %coerce.dive, align 8
  ret ptr %0
}

; Function Attrs: mustprogress nounwind uwtable
define linkonce_odr noundef nonnull align 8 dereferenceable(16) ptr @_ZNKSt6vectorIN8facebook5velox9ByteRangeESaIS2_EE4backEv(ptr noundef nonnull align 8 dereferenceable(24) %this) #3 comdat align 2 {
entry:
  %this.addr = alloca ptr, align 8
  %ref.tmp = alloca %"class.__gnu_cxx::__normal_iterator", align 8
  %ref.tmp2 = alloca %"class.__gnu_cxx::__normal_iterator", align 8
  store ptr %this, ptr %this.addr, align 8
  %this1 = load ptr, ptr %this.addr, align 8
  %call = call ptr @_ZNKSt6vectorIN8facebook5velox9ByteRangeESaIS2_EE3endEv(ptr noundef nonnull align 8 dereferenceable(24) %this1) #14
  %coerce.dive = getelementptr inbounds %"class.__gnu_cxx::__normal_iterator", ptr %ref.tmp2, i32 0, i32 0
  store ptr %call, ptr %coerce.dive, align 8
  %call3 = call ptr @_ZNK9__gnu_cxx17__normal_iteratorIPKN8facebook5velox9ByteRangeESt6vectorIS3_SaIS3_EEEmiEl(ptr noundef nonnull align 8 dereferenceable(8) %ref.tmp2, i64 noundef 1) #14
  %coerce.dive4 = getelementptr inbounds %"class.__gnu_cxx::__normal_iterator", ptr %ref.tmp, i32 0, i32 0
  store ptr %call3, ptr %coerce.dive4, align 8
  %call5 = call noundef nonnull align 8 dereferenceable(16) ptr @_ZNK9__gnu_cxx17__normal_iteratorIPKN8facebook5velox9ByteRangeESt6vectorIS3_SaIS3_EEEdeEv(ptr noundef nonnull align 8 dereferenceable(8) %ref.tmp) #14
  ret ptr %call5
}

; Function Attrs: mustprogress nounwind uwtable
define linkonce_odr noundef nonnull align 8 dereferenceable(8) ptr @_ZN9__gnu_cxx17__normal_iteratorIPN8facebook5velox9ByteRangeESt6vectorIS3_SaIS3_EEEppEv(ptr noundef nonnull align 8 dereferenceable(8) %this) #3 comdat align 2 {
entry:
  %this.addr = alloca ptr, align 8
  store ptr %this, ptr %this.addr, align 8
  %this1 = load ptr, ptr %this.addr, align 8
  %_M_current = getelementptr inbounds %"class.__gnu_cxx::__normal_iterator.4", ptr %this1, i32 0, i32 0
  %0 = load ptr, ptr %_M_current, align 8
  %incdec.ptr = getelementptr inbounds %"struct.facebook::velox::ByteRange", ptr %0, i32 1
  store ptr %incdec.ptr, ptr %_M_current, align 8
  ret ptr %this1
}

; Function Attrs: mustprogress nounwind uwtable
define linkonce_odr noundef nonnull align 8 dereferenceable(16) ptr @_ZNK9__gnu_cxx17__normal_iteratorIPN8facebook5velox9ByteRangeESt6vectorIS3_SaIS3_EEEdeEv(ptr noundef nonnull align 8 dereferenceable(8) %this) #3 comdat align 2 {
entry:
  %this.addr = alloca ptr, align 8
  store ptr %this, ptr %this.addr, align 8
  %this1 = load ptr, ptr %this.addr, align 8
  %_M_current = getelementptr inbounds %"class.__gnu_cxx::__normal_iterator.4", ptr %this1, i32 0, i32 0
  %0 = load ptr, ptr %_M_current, align 8
  ret ptr %0
}

; Function Attrs: mustprogress nounwind uwtable
define linkonce_odr noundef zeroext i1 @_ZN9__gnu_cxxneIPN8facebook5velox9ByteRangeESt6vectorIS3_SaIS3_EEEEbRKNS_17__normal_iteratorIT_T0_EESD_(ptr noundef nonnull align 8 dereferenceable(8) %__lhs, ptr noundef nonnull align 8 dereferenceable(8) %__rhs) #3 comdat {
entry:
  %__lhs.addr = alloca ptr, align 8
  %__rhs.addr = alloca ptr, align 8
  store ptr %__lhs, ptr %__lhs.addr, align 8
  store ptr %__rhs, ptr %__rhs.addr, align 8
  %0 = load ptr, ptr %__lhs.addr, align 8
  %call = call noundef nonnull align 8 dereferenceable(8) ptr @_ZNK9__gnu_cxx17__normal_iteratorIPN8facebook5velox9ByteRangeESt6vectorIS3_SaIS3_EEE4baseEv(ptr noundef nonnull align 8 dereferenceable(8) %0) #14
  %1 = load ptr, ptr %call, align 8
  %2 = load ptr, ptr %__rhs.addr, align 8
  %call1 = call noundef nonnull align 8 dereferenceable(8) ptr @_ZNK9__gnu_cxx17__normal_iteratorIPN8facebook5velox9ByteRangeESt6vectorIS3_SaIS3_EEE4baseEv(ptr noundef nonnull align 8 dereferenceable(8) %2) #14
  %3 = load ptr, ptr %call1, align 8
  %cmp = icmp ne ptr %1, %3
  ret i1 %cmp
}

; Function Attrs: mustprogress nounwind uwtable
define linkonce_odr ptr @_ZNSt6vectorIN8facebook5velox9ByteRangeESaIS2_EE3endEv(ptr noundef nonnull align 8 dereferenceable(24) %this) #3 comdat align 2 {
entry:
  %retval = alloca %"class.__gnu_cxx::__normal_iterator.4", align 8
  %this.addr = alloca ptr, align 8
  store ptr %this, ptr %this.addr, align 8
  %this1 = load ptr, ptr %this.addr, align 8
  %_M_impl = getelementptr inbounds %"struct.std::_Vector_base", ptr %this1, i32 0, i32 0
  %_M_finish = getelementptr inbounds %"struct.std::_Vector_base<facebook::velox::ByteRange, std::allocator<facebook::velox::ByteRange>>::_Vector_impl_data", ptr %_M_impl, i32 0, i32 1
  call void @_ZN9__gnu_cxx17__normal_iteratorIPN8facebook5velox9ByteRangeESt6vectorIS3_SaIS3_EEEC2ERKS4_(ptr noundef nonnull align 8 dereferenceable(8) %retval, ptr noundef nonnull align 8 dereferenceable(8) %_M_finish) #14
  %coerce.dive = getelementptr inbounds %"class.__gnu_cxx::__normal_iterator.4", ptr %retval, i32 0, i32 0
  %0 = load ptr, ptr %coerce.dive, align 8
  ret ptr %0
}

; Function Attrs: mustprogress nounwind uwtable
define linkonce_odr ptr @_ZNSt6vectorIN8facebook5velox9ByteRangeESaIS2_EE5beginEv(ptr noundef nonnull align 8 dereferenceable(24) %this) #3 comdat align 2 {
entry:
  %retval = alloca %"class.__gnu_cxx::__normal_iterator.4", align 8
  %this.addr = alloca ptr, align 8
  store ptr %this, ptr %this.addr, align 8
  %this1 = load ptr, ptr %this.addr, align 8
  %_M_impl = getelementptr inbounds %"struct.std::_Vector_base", ptr %this1, i32 0, i32 0
  %_M_start = getelementptr inbounds %"struct.std::_Vector_base<facebook::velox::ByteRange, std::allocator<facebook::velox::ByteRange>>::_Vector_impl_data", ptr %_M_impl, i32 0, i32 0
  call void @_ZN9__gnu_cxx17__normal_iteratorIPN8facebook5velox9ByteRangeESt6vectorIS3_SaIS3_EEEC2ERKS4_(ptr noundef nonnull align 8 dereferenceable(8) %retval, ptr noundef nonnull align 8 dereferenceable(8) %_M_start) #14
  %coerce.dive = getelementptr inbounds %"class.__gnu_cxx::__normal_iterator.4", ptr %retval, i32 0, i32 0
  %0 = load ptr, ptr %coerce.dive, align 8
  ret ptr %0
}

; Function Attrs: mustprogress nounwind uwtable
define linkonce_odr noundef zeroext i1 @_ZNKSt6vectorIN8facebook5velox9ByteRangeESaIS2_EE5emptyEv(ptr noundef nonnull align 8 dereferenceable(24) %this) #3 comdat align 2 {
entry:
  %this.addr = alloca ptr, align 8
  %ref.tmp = alloca %"class.__gnu_cxx::__normal_iterator", align 8
  %ref.tmp2 = alloca %"class.__gnu_cxx::__normal_iterator", align 8
  store ptr %this, ptr %this.addr, align 8
  %this1 = load ptr, ptr %this.addr, align 8
  %call = call ptr @_ZNKSt6vectorIN8facebook5velox9ByteRangeESaIS2_EE5beginEv(ptr noundef nonnull align 8 dereferenceable(24) %this1) #14
  %coerce.dive = getelementptr inbounds %"class.__gnu_cxx::__normal_iterator", ptr %ref.tmp, i32 0, i32 0
  store ptr %call, ptr %coerce.dive, align 8
  %call3 = call ptr @_ZNKSt6vectorIN8facebook5velox9ByteRangeESaIS2_EE3endEv(ptr noundef nonnull align 8 dereferenceable(24) %this1) #14
  %coerce.dive4 = getelementptr inbounds %"class.__gnu_cxx::__normal_iterator", ptr %ref.tmp2, i32 0, i32 0
  store ptr %call3, ptr %coerce.dive4, align 8
  %call5 = call noundef zeroext i1 @_ZN9__gnu_cxxeqIPKN8facebook5velox9ByteRangeESt6vectorIS3_SaIS3_EEEEbRKNS_17__normal_iteratorIT_T0_EESE_(ptr noundef nonnull align 8 dereferenceable(8) %ref.tmp, ptr noundef nonnull align 8 dereferenceable(8) %ref.tmp2) #14
  ret i1 %call5
}

; Function Attrs: mustprogress nounwind uwtable
define linkonce_odr void @_ZNK8facebook5velox16ByteOutputStream9updateEndEv(ptr noundef nonnull align 8 dereferenceable(60) %this) #3 comdat align 2 {
entry:
  %this.addr = alloca ptr, align 8
  store ptr %this, ptr %this.addr, align 8
  %this1 = load ptr, ptr %this.addr, align 8
  %ranges_ = getelementptr inbounds %"class.facebook::velox::ByteOutputStream", ptr %this1, i32 0, i32 5
  %call = call noundef zeroext i1 @_ZNKSt6vectorIN8facebook5velox9ByteRangeESaIS2_EE5emptyEv(ptr noundef nonnull align 8 dereferenceable(24) %ranges_) #14
  br i1 %call, label %if.end, label %land.lhs.true

land.lhs.true:                                    ; preds = %entry
  %current_ = getelementptr inbounds %"class.facebook::velox::ByteOutputStream", ptr %this1, i32 0, i32 7
  %0 = load ptr, ptr %current_, align 8
  %ranges_2 = getelementptr inbounds %"class.facebook::velox::ByteOutputStream", ptr %this1, i32 0, i32 5
  %call3 = call noundef nonnull align 8 dereferenceable(16) ptr @_ZNKSt6vectorIN8facebook5velox9ByteRangeESaIS2_EE4backEv(ptr noundef nonnull align 8 dereferenceable(24) %ranges_2) #14
  %cmp = icmp eq ptr %0, %call3
  br i1 %cmp, label %land.lhs.true4, label %if.end

land.lhs.true4:                                   ; preds = %land.lhs.true
  %current_5 = getelementptr inbounds %"class.facebook::velox::ByteOutputStream", ptr %this1, i32 0, i32 7
  %1 = load ptr, ptr %current_5, align 8
  %position = getelementptr inbounds %"struct.facebook::velox::ByteRange", ptr %1, i32 0, i32 2
  %2 = load i32, ptr %position, align 4
  %lastRangeEnd_ = getelementptr inbounds %"class.facebook::velox::ByteOutputStream", ptr %this1, i32 0, i32 8
  %3 = load i32, ptr %lastRangeEnd_, align 8
  %cmp6 = icmp sgt i32 %2, %3
  br i1 %cmp6, label %if.then, label %if.end

if.then:                                          ; preds = %land.lhs.true4
  %current_7 = getelementptr inbounds %"class.facebook::velox::ByteOutputStream", ptr %this1, i32 0, i32 7
  %4 = load ptr, ptr %current_7, align 8
  %position8 = getelementptr inbounds %"struct.facebook::velox::ByteRange", ptr %4, i32 0, i32 2
  %5 = load i32, ptr %position8, align 4
  %lastRangeEnd_9 = getelementptr inbounds %"class.facebook::velox::ByteOutputStream", ptr %this1, i32 0, i32 8
  store i32 %5, ptr %lastRangeEnd_9, align 8
  br label %if.end

if.end:                                           ; preds = %if.then, %land.lhs.true4, %land.lhs.true, %entry
  ret void
}

; Function Attrs: mustprogress nounwind uwtable
define linkonce_odr noundef i64 @_ZNKSt4fposI11__mbstate_tEcvlEv(ptr noundef nonnull align 8 dereferenceable(16) %this) #3 comdat align 2 {
entry:
  %this.addr = alloca ptr, align 8
  store ptr %this, ptr %this.addr, align 8
  %this1 = load ptr, ptr %this.addr, align 8
  %_M_off = getelementptr inbounds %"class.std::fpos", ptr %this1, i32 0, i32 0
  %0 = load i64, ptr %_M_off, align 8
  ret i64 %0
}

; Function Attrs: mustprogress uwtable
define void @_ZN8facebook5velox16ByteOutputStream5seekpESt4fposI11__mbstate_tE(ptr noundef nonnull align 8 dereferenceable(60) %this, i64 %position.coerce0, i64 %position.coerce1) #0 align 2 {
entry:
  %position = alloca %"class.std::fpos", align 8
  %this.addr = alloca ptr, align 8
  %toSkip = alloca i64, align 8
  %__range2 = alloca ptr, align 8
  %__begin2 = alloca %"class.__gnu_cxx::__normal_iterator.4", align 8
  %__end2 = alloca %"class.__gnu_cxx::__normal_iterator.4", align 8
  %range = alloca ptr, align 8
  %0 = getelementptr inbounds { i64, i64 }, ptr %position, i32 0, i32 0
  store i64 %position.coerce0, ptr %0, align 8
  %1 = getelementptr inbounds { i64, i64 }, ptr %position, i32 0, i32 1
  store i64 %position.coerce1, ptr %1, align 8
  store ptr %this, ptr %this.addr, align 8
  %this1 = load ptr, ptr %this.addr, align 8
  %call = call noundef i64 @_ZNKSt4fposI11__mbstate_tEcvlEv(ptr noundef nonnull align 8 dereferenceable(16) %position)
  store i64 %call, ptr %toSkip, align 8
  call void @_ZNK8facebook5velox16ByteOutputStream9updateEndEv(ptr noundef nonnull align 8 dereferenceable(60) %this1)
  %ranges_ = getelementptr inbounds %"class.facebook::velox::ByteOutputStream", ptr %this1, i32 0, i32 5
  %call2 = call noundef zeroext i1 @_ZNKSt6vectorIN8facebook5velox9ByteRangeESaIS2_EE5emptyEv(ptr noundef nonnull align 8 dereferenceable(24) %ranges_) #14
  br i1 %call2, label %land.lhs.true, label %if.end

land.lhs.true:                                    ; preds = %entry
  %call3 = call noundef i64 @_ZNKSt4fposI11__mbstate_tEcvlEv(ptr noundef nonnull align 8 dereferenceable(16) %position)
  %cmp = icmp eq i64 %call3, 0
  br i1 %cmp, label %if.then, label %if.end

if.then:                                          ; preds = %land.lhs.true
  br label %return

if.end:                                           ; preds = %land.lhs.true, %entry
  %ranges_4 = getelementptr inbounds %"class.facebook::velox::ByteOutputStream", ptr %this1, i32 0, i32 5
  store ptr %ranges_4, ptr %__range2, align 8
  %2 = load ptr, ptr %__range2, align 8
  %call5 = call ptr @_ZNSt6vectorIN8facebook5velox9ByteRangeESaIS2_EE5beginEv(ptr noundef nonnull align 8 dereferenceable(24) %2) #14
  %coerce.dive = getelementptr inbounds %"class.__gnu_cxx::__normal_iterator.4", ptr %__begin2, i32 0, i32 0
  store ptr %call5, ptr %coerce.dive, align 8
  %3 = load ptr, ptr %__range2, align 8
  %call6 = call ptr @_ZNSt6vectorIN8facebook5velox9ByteRangeESaIS2_EE3endEv(ptr noundef nonnull align 8 dereferenceable(24) %3) #14
  %coerce.dive7 = getelementptr inbounds %"class.__gnu_cxx::__normal_iterator.4", ptr %__end2, i32 0, i32 0
  store ptr %call6, ptr %coerce.dive7, align 8
  br label %for.cond

for.cond:                                         ; preds = %for.inc, %if.end
  %call8 = call noundef zeroext i1 @_ZN9__gnu_cxxneIPN8facebook5velox9ByteRangeESt6vectorIS3_SaIS3_EEEEbRKNS_17__normal_iteratorIT_T0_EESD_(ptr noundef nonnull align 8 dereferenceable(8) %__begin2, ptr noundef nonnull align 8 dereferenceable(8) %__end2) #14
  br i1 %call8, label %for.body, label %for.end

for.body:                                         ; preds = %for.cond
  %call9 = call noundef nonnull align 8 dereferenceable(16) ptr @_ZNK9__gnu_cxx17__normal_iteratorIPN8facebook5velox9ByteRangeESt6vectorIS3_SaIS3_EEEdeEv(ptr noundef nonnull align 8 dereferenceable(8) %__begin2) #14
  store ptr %call9, ptr %range, align 8
  %4 = load i64, ptr %toSkip, align 8
  %5 = load ptr, ptr %range, align 8
  %size = getelementptr inbounds %"struct.facebook::velox::ByteRange", ptr %5, i32 0, i32 1
  %6 = load i32, ptr %size, align 8
  %conv = sext i32 %6 to i64
  %cmp10 = icmp sle i64 %4, %conv
  br i1 %cmp10, label %if.then11, label %if.end15

if.then11:                                        ; preds = %for.body
  %7 = load ptr, ptr %range, align 8
  %current_ = getelementptr inbounds %"class.facebook::velox::ByteOutputStream", ptr %this1, i32 0, i32 7
  store ptr %7, ptr %current_, align 8
  %8 = load i64, ptr %toSkip, align 8
  %conv12 = trunc i64 %8 to i32
  %current_13 = getelementptr inbounds %"class.facebook::velox::ByteOutputStream", ptr %this1, i32 0, i32 7
  %9 = load ptr, ptr %current_13, align 8
  %position14 = getelementptr inbounds %"struct.facebook::velox::ByteRange", ptr %9, i32 0, i32 2
  store i32 %conv12, ptr %position14, align 4
  br label %return

if.end15:                                         ; preds = %for.body
  %10 = load ptr, ptr %range, align 8
  %size16 = getelementptr inbounds %"struct.facebook::velox::ByteRange", ptr %10, i32 0, i32 1
  %11 = load i32, ptr %size16, align 8
  %conv17 = sext i32 %11 to i64
  %12 = load i64, ptr %toSkip, align 8
  %sub = sub nsw i64 %12, %conv17
  store i64 %sub, ptr %toSkip, align 8
  br label %for.inc

for.inc:                                          ; preds = %if.end15
  %call18 = call noundef nonnull align 8 dereferenceable(8) ptr @_ZN9__gnu_cxx17__normal_iteratorIPN8facebook5velox9ByteRangeESt6vectorIS3_SaIS3_EEEppEv(ptr noundef nonnull align 8 dereferenceable(8) %__begin2) #14
  br label %for.cond

for.end:                                          ; preds = %for.cond
  call void @llvm.trap()
  br label %return

return:                                           ; preds = %for.end, %if.then11, %if.then
  ret void
}