; Function Attrs: mustprogress nounwind memory(readwrite, inaccessiblemem: write) uwtable
define void @_ZN8facebook5velox16ByteOutputStream5seekpESt4fposI11__mbstate_tE(ptr nocapture noundef nonnull align 8 dereferenceable(60) %this, i64 %position.coerce0, i64 %position.coerce1) local_unnamed_addr #6 align 2 {
entry:
  %ranges_.i = getelementptr inbounds i8, ptr %this, i64 16
  %0 = load ptr, ptr %ranges_.i, align 8
  %_M_finish.i.i.i = getelementptr inbounds i8, ptr %this, i64 24
  %1 = load ptr, ptr %_M_finish.i.i.i, align 8
  %cmp.i.i.i = icmp eq ptr %0, %1
  br i1 %cmp.i.i.i, label %_ZNK8facebook5velox16ByteOutputStream9updateEndEv.exit, label %land.lhs.true.i

land.lhs.true.i:                                  ; preds = %entry
  %current_.i = getelementptr inbounds i8, ptr %this, i64 48
  %2 = load ptr, ptr %current_.i, align 8
  %add.ptr.i.i.i = getelementptr inbounds i8, ptr %1, i64 -16
  %cmp.i = icmp eq ptr %2, %add.ptr.i.i.i
  br i1 %cmp.i, label %land.lhs.true4.i, label %for.body.preheader

for.body.preheader:                               ; preds = %if.then.i, %land.lhs.true4.i, %land.lhs.true.i
  br label %for.body

land.lhs.true4.i:                                 ; preds = %land.lhs.true.i
  %position.i = getelementptr inbounds i8, ptr %2, i64 12
  %3 = load i32, ptr %position.i, align 4
  %lastRangeEnd_.i = getelementptr inbounds i8, ptr %this, i64 56
  %4 = load i32, ptr %lastRangeEnd_.i, align 8
  %cmp6.i = icmp sgt i32 %3, %4
  br i1 %cmp6.i, label %if.then.i, label %for.body.preheader

if.then.i:                                        ; preds = %land.lhs.true4.i
  store i32 %3, ptr %lastRangeEnd_.i, align 8
  br label %for.body.preheader

_ZNK8facebook5velox16ByteOutputStream9updateEndEv.exit: ; preds = %entry
  %cmp = icmp eq i64 %position.coerce0, 0
  br i1 %cmp, label %return, label %for.end

for.body:                                         ; preds = %for.body.preheader, %if.end15
  %toSkip.014 = phi i64 [ %sub, %if.end15 ], [ %position.coerce0, %for.body.preheader ]
  %__begin2.sroa.0.013 = phi ptr [ %incdec.ptr.i, %if.end15 ], [ %0, %for.body.preheader ]
  %size = getelementptr inbounds i8, ptr %__begin2.sroa.0.013, i64 8
  %5 = load i32, ptr %size, align 8
  %conv = sext i32 %5 to i64
  %cmp10.not = icmp sgt i64 %toSkip.014, %conv
  br i1 %cmp10.not, label %if.end15, label %if.then11

if.then11:                                        ; preds = %for.body
  %current_ = getelementptr inbounds i8, ptr %this, i64 48
  store ptr %__begin2.sroa.0.013, ptr %current_, align 8
  %conv12 = trunc i64 %toSkip.014 to i32
  %position14 = getelementptr inbounds i8, ptr %__begin2.sroa.0.013, i64 12
  store i32 %conv12, ptr %position14, align 4
  br label %return

if.end15:                                         ; preds = %for.body
  %sub = sub nsw i64 %toSkip.014, %conv
  %incdec.ptr.i = getelementptr inbounds i8, ptr %__begin2.sroa.0.013, i64 16
  %cmp.i6.not = icmp eq ptr %incdec.ptr.i, %1
  br i1 %cmp.i6.not, label %for.end, label %for.body

for.end:                                          ; preds = %if.end15, %_ZNK8facebook5velox16ByteOutputStream9updateEndEv.exit
  tail call void @llvm.trap()
  unreachable

return:                                           ; preds = %_ZNK8facebook5velox16ByteOutputStream9updateEndEv.exit, %if.then11
  ret void
}